target datalayout = "e-m:e-p270:32:32-p271:32:32-p272:64:64-i64:64-i128:128-f80:128-n8:16:32:64-S128"
target triple = "x86_64-pc-linux-gnu"

%struct.AVFilterContext = type { ptr, ptr, ptr, ptr, ptr, i32, ptr, ptr, i32, ptr, ptr, i32, i32, ptr, ptr, ptr, ptr, i32, ptr, i32, i32 }
%struct.BM3DContext = type { ptr, float, i32, i32, i32, i32, i32, float, float, i32, i32, i32, i32, i32, i32, [4 x i32], [4 x i32], i32, i32, [32 x %struct.SliceContext], %struct.FFFrameSync, i32, ptr, ptr, ptr, ptr }
%struct.SliceContext = type { ptr, ptr, ptr, ptr, ptr, ptr, ptr, ptr, ptr, ptr, ptr, ptr, ptr, ptr, ptr, ptr, ptr, ptr, ptr, [256 x %struct.PosPairCode], i32, ptr }
%struct.PosPairCode = type { double, i32, i32 }
%struct.FFFrameSync = type { ptr, ptr, i32, %struct.AVRational, i64, ptr, ptr, i32, i32, i8, i8, ptr, i32, i32, i32, i32 }
%struct.AVRational = type { i32, i32 }

; Function Attrs: cold nounwind optsize uwtable
define internal void @uninit(ptr noundef %0) #0 {
  %2 = alloca ptr, align 8
  %3 = alloca ptr, align 8
  %4 = alloca i32, align 4
  %5 = alloca ptr, align 8
  store ptr %0, ptr %2, align 8, !tbaa !4
  call void @llvm.lifetime.start.p0(i64 8, ptr %3) #12
  %6 = load ptr, ptr %2, align 8, !tbaa !4
  %7 = getelementptr inbounds nuw %struct.AVFilterContext, ptr %6, i32 0, i32 9
  %8 = load ptr, ptr %7, align 8, !tbaa !9
  store ptr %8, ptr %3, align 8, !tbaa !22
  %9 = load ptr, ptr %3, align 8, !tbaa !22
  %10 = getelementptr inbounds nuw %struct.BM3DContext, ptr %9, i32 0, i32 10
  %11 = load i32, ptr %10, align 4, !tbaa !34
  %12 = icmp ne i32 %11, 0
  br i1 %12, label %13, label %16

13:                                               ; preds = %1
  %14 = load ptr, ptr %3, align 8, !tbaa !22
  %15 = getelementptr inbounds nuw %struct.BM3DContext, ptr %14, i32 0, i32 20
  call void @ff_framesync_uninit(ptr noundef %15)
  br label %16

16:                                               ; preds = %13, %1
  call void @llvm.lifetime.start.p0(i64 4, ptr %4) #12
  store i32 0, ptr %4, align 4, !tbaa !43
  br label %17

17:                                               ; preds = %62, %16
  %18 = load i32, ptr %4, align 4, !tbaa !43
  %19 = load ptr, ptr %3, align 8, !tbaa !22
  %20 = getelementptr inbounds nuw %struct.BM3DContext, ptr %19, i32 0, i32 21
  %21 = load i32, ptr %20, align 8, !tbaa !44
  %22 = icmp slt i32 %18, %21
  br i1 %22, label %24, label %23

23:                                               ; preds = %17
  call void @llvm.lifetime.end.p0(i64 4, ptr %4) #12
  br label %65

24:                                               ; preds = %17
  call void @llvm.lifetime.start.p0(i64 8, ptr %5) #12
  %25 = load ptr, ptr %3, align 8, !tbaa !22
  %26 = getelementptr inbounds nuw %struct.BM3DContext, ptr %25, i32 0, i32 19
  %27 = load i32, ptr %4, align 4, !tbaa !43
  %28 = sext i32 %27 to i64
  %29 = getelementptr inbounds [32 x %struct.SliceContext], ptr %26, i64 0, i64 %28
  store ptr %29, ptr %5, align 8, !tbaa !45
  %30 = load ptr, ptr %5, align 8, !tbaa !45
  %31 = getelementptr inbounds nuw %struct.SliceContext, ptr %30, i32 0, i32 17
  call void @av_freep(ptr noundef %31)
  %32 = load ptr, ptr %5, align 8, !tbaa !45
  %33 = getelementptr inbounds nuw %struct.SliceContext, ptr %32, i32 0, i32 18
  call void @av_freep(ptr noundef %33)
  %34 = load ptr, ptr %5, align 8, !tbaa !45
  %35 = getelementptr inbounds nuw %struct.SliceContext, ptr %34, i32 0, i32 0
  call void @av_tx_uninit(ptr noundef %35)
  %36 = load ptr, ptr %5, align 8, !tbaa !45
  %37 = getelementptr inbounds nuw %struct.SliceContext, ptr %36, i32 0, i32 1
  call void @av_tx_uninit(ptr noundef %37)
  %38 = load ptr, ptr %5, align 8, !tbaa !45
  %39 = getelementptr inbounds nuw %struct.SliceContext, ptr %38, i32 0, i32 4
  call void @av_tx_uninit(ptr noundef %39)
  %40 = load ptr, ptr %5, align 8, !tbaa !45
  %41 = getelementptr inbounds nuw %struct.SliceContext, ptr %40, i32 0, i32 5
  call void @av_tx_uninit(ptr noundef %41)
  %42 = load ptr, ptr %5, align 8, !tbaa !45
  %43 = getelementptr inbounds nuw %struct.SliceContext, ptr %42, i32 0, i32 12
  call void @av_freep(ptr noundef %43)
  %44 = load ptr, ptr %5, align 8, !tbaa !45
  %45 = getelementptr inbounds nuw %struct.SliceContext, ptr %44, i32 0, i32 8
  call void @av_freep(ptr noundef %45)
  %46 = load ptr, ptr %5, align 8, !tbaa !45
  %47 = getelementptr inbounds nuw %struct.SliceContext, ptr %46, i32 0, i32 9
  call void @av_freep(ptr noundef %47)
  %48 = load ptr, ptr %5, align 8, !tbaa !45
  %49 = getelementptr inbounds nuw %struct.SliceContext, ptr %48, i32 0, i32 10
  call void @av_freep(ptr noundef %49)
  %50 = load ptr, ptr %5, align 8, !tbaa !45
  %51 = getelementptr inbounds nuw %struct.SliceContext, ptr %50, i32 0, i32 11
  call void @av_freep(ptr noundef %51)
  %52 = load ptr, ptr %5, align 8, !tbaa !45
  %53 = getelementptr inbounds nuw %struct.SliceContext, ptr %52, i32 0, i32 16
  call void @av_freep(ptr noundef %53)
  %54 = load ptr, ptr %5, align 8, !tbaa !45
  %55 = getelementptr inbounds nuw %struct.SliceContext, ptr %54, i32 0, i32 13
  call void @av_freep(ptr noundef %55)
  %56 = load ptr, ptr %5, align 8, !tbaa !45
  %57 = getelementptr inbounds nuw %struct.SliceContext, ptr %56, i32 0, i32 14
  call void @av_freep(ptr noundef %57)
  %58 = load ptr, ptr %5, align 8, !tbaa !45
  %59 = getelementptr inbounds nuw %struct.SliceContext, ptr %58, i32 0, i32 15
  call void @av_freep(ptr noundef %59)
  %60 = load ptr, ptr %5, align 8, !tbaa !45
  %61 = getelementptr inbounds nuw %struct.SliceContext, ptr %60, i32 0, i32 21
  call void @av_freep(ptr noundef %61)
  call void @llvm.lifetime.end.p0(i64 8, ptr %5) #12
  br label %62

62:                                               ; preds = %24
  %63 = load i32, ptr %4, align 4, !tbaa !43
  %64 = add nsw i32 %63, 1
  store i32 %64, ptr %4, align 4, !tbaa !43
  br label %17, !llvm.loop !47

65:                                               ; preds = %23
  call void @llvm.lifetime.end.p0(i64 8, ptr %3) #12
  ret void
}