; Function Attrs: cold nounwind optsize uwtable
define internal void @uninit(ptr noundef readonly captures(none) %0) #0 {
  %2 = getelementptr inbounds nuw i8, ptr %0, i64 72
  %3 = load ptr, ptr %2, align 8, !tbaa !4
  %4 = getelementptr inbounds nuw i8, ptr %3, i64 44
  %5 = load i32, ptr %4, align 4, !tbaa !30
  %.not = icmp eq i32 %5, 0
  br i1 %.not, label %8, label %6

6:                                                ; preds = %1
  %7 = getelementptr inbounds nuw i8, ptr %3, i64 136552
  tail call void @ff_framesync_uninit(ptr noundef nonnull %7) #15
  br label %8

8:                                                ; preds = %6, %1
  %9 = getelementptr inbounds nuw i8, ptr %3, i64 136648
  %10 = load i32, ptr %9, align 8, !tbaa !40
  %11 = icmp sgt i32 %10, 0
  br i1 %11, label %.lr.ph, label %._crit_edge

.lr.ph:                                           ; preds = %8
  %12 = getelementptr inbounds nuw i8, ptr %3, i64 104
  br label %13

._crit_edge:                                      ; preds = %13, %8
  ret void

13:                                               ; preds = %.lr.ph, %13
  %indvars.iv = phi i64 [ 0, %.lr.ph ], [ %indvars.iv.next, %13 ]
  %14 = getelementptr inbounds nuw [32 x %struct.SliceContext], ptr %12, i64 0, i64 %indvars.iv
  %15 = getelementptr inbounds nuw i8, ptr %14, i64 136
  tail call void @av_freep(ptr noundef nonnull %15) #15
  %16 = getelementptr inbounds nuw i8, ptr %14, i64 144
  tail call void @av_freep(ptr noundef nonnull %16) #15
  tail call void @av_tx_uninit(ptr noundef nonnull %14) #15
  %17 = getelementptr inbounds nuw i8, ptr %14, i64 8
  tail call void @av_tx_uninit(ptr noundef nonnull %17) #15
  %18 = getelementptr inbounds nuw i8, ptr %14, i64 32
  tail call void @av_tx_uninit(ptr noundef nonnull %18) #15
  %19 = getelementptr inbounds nuw i8, ptr %14, i64 40
  tail call void @av_tx_uninit(ptr noundef nonnull %19) #15
  %20 = getelementptr inbounds nuw i8, ptr %14, i64 96
  tail call void @av_freep(ptr noundef nonnull %20) #15
  %21 = getelementptr inbounds nuw i8, ptr %14, i64 64
  tail call void @av_freep(ptr noundef nonnull %21) #15
  %22 = getelementptr inbounds nuw i8, ptr %14, i64 72
  tail call void @av_freep(ptr noundef nonnull %22) #15
  %23 = getelementptr inbounds nuw i8, ptr %14, i64 80
  tail call void @av_freep(ptr noundef nonnull %23) #15
  %24 = getelementptr inbounds nuw i8, ptr %14, i64 88
  tail call void @av_freep(ptr noundef nonnull %24) #15
  %25 = getelementptr inbounds nuw i8, ptr %14, i64 128
  tail call void @av_freep(ptr noundef nonnull %25) #15
  %26 = getelementptr inbounds nuw i8, ptr %14, i64 104
  tail call void @av_freep(ptr noundef nonnull %26) #15
  %27 = getelementptr inbounds nuw i8, ptr %14, i64 112
  tail call void @av_freep(ptr noundef nonnull %27) #15
  %28 = getelementptr inbounds nuw i8, ptr %14, i64 120
  tail call void @av_freep(ptr noundef nonnull %28) #15
  %29 = getelementptr inbounds nuw i8, ptr %14, i64 4256
  tail call void @av_freep(ptr noundef nonnull %29) #15
  %indvars.iv.next = add nuw nsw i64 %indvars.iv, 1
  %30 = load i32, ptr %9, align 8, !tbaa !40
  %31 = sext i32 %30 to i64
  %32 = icmp slt i64 %indvars.iv.next, %31
  br i1 %32, label %13, label %._crit_edge, !llvm.loop !41
}